target datalayout = "e-m:e-p270:32:32-p271:32:32-p272:64:64-i64:64-i128:128-f80:128-n8:16:32:64-S128"
target triple = "x86_64-pc-linux-gnu"

%struct.ZSTD_customMem = type { ptr, ptr, ptr }
%struct.ZSTD_DCtx_s = type { ptr, ptr, ptr, ptr, %struct.ZSTD_entropyDTables_t, [640 x i32], ptr, ptr, ptr, ptr, i64, %struct.ZSTD_FrameHeader, i64, i64, i32, i32, i32, i32, %struct.XXH64_state_s, i64, i32, i32, i32, ptr, %struct.ZSTD_customMem, i64, i64, i64, i32, i32, ptr, ptr, i32, i32, i32, ptr, i32, i32, i32, i32, ptr, i64, i64, i64, ptr, i64, i64, i64, i64, ptr, i32, i32, i32, i32, i32, %struct.ZSTD_outBuffer_s, ptr, ptr, i32, [65568 x i8], [18 x i8], i64, i64 }
%struct.ZSTD_entropyDTables_t = type { [513 x %struct.ZSTD_seqSymbol], [257 x %struct.ZSTD_seqSymbol], [513 x %struct.ZSTD_seqSymbol], [4097 x i32], [3 x i32], [157 x i32] }
%struct.ZSTD_seqSymbol = type { i16, i8, i8, i32 }
%struct.ZSTD_FrameHeader = type { i64, i64, i32, i32, i32, i32, i32, i32, i32 }
%struct.XXH64_state_s = type { i64, [4 x i64], [4 x i64], i32, i32, i64 }
%struct.ZSTD_outBuffer_s = type { ptr, i64, i64 }

@repStartValue = internal constant [3 x i32] [i32 1, i32 4, i32 8], align 4

; Function Attrs: inlinehint nounwind uwtable
define internal i32 @MEM_swap32(i32 noundef %0) #4 {
  %2 = alloca i32, align 4
  store i32 %0, ptr %2, align 4, !tbaa !43
  %3 = load i32, ptr %2, align 4, !tbaa !43
  %4 = call i32 @llvm.bswap.i32(i32 %3)
  ret i32 %4
}

; Function Attrs: inlinehint nounwind uwtable
define internal i32 @MEM_read32(ptr noundef %0) #4 {
  %2 = alloca ptr, align 8
  store ptr %0, ptr %2, align 8, !tbaa !23
  %3 = load ptr, ptr %2, align 8, !tbaa !23
  %4 = load i32, ptr %3, align 1, !tbaa !43
  ret i32 %4
}

; Function Attrs: inlinehint nounwind uwtable
define internal i32 @MEM_isLittleEndian() #4 {
  ret i32 1
}

; Function Attrs: inlinehint nounwind uwtable
define internal i32 @MEM_readLE32(ptr noundef %0) #4 {
  %2 = alloca i32, align 4
  %3 = alloca ptr, align 8
  store ptr %0, ptr %3, align 8, !tbaa !23
  %4 = call i32 @MEM_isLittleEndian()
  %5 = icmp ne i32 %4, 0
  br i1 %5, label %6, label %9

6:                                                ; preds = %1
  %7 = load ptr, ptr %3, align 8, !tbaa !23
  %8 = call i32 @MEM_read32(ptr noundef %7)
  store i32 %8, ptr %2, align 4
  br label %13

9:                                                ; preds = %1
  %10 = load ptr, ptr %3, align 8, !tbaa !23
  %11 = call i32 @MEM_read32(ptr noundef %10)
  %12 = call i32 @MEM_swap32(i32 noundef %11)
  store i32 %12, ptr %2, align 4
  br label %13

13:                                               ; preds = %9, %6
  %14 = load i32, ptr %2, align 4
  ret i32 %14
}

; Function Attrs: nounwind uwtable
define internal i64 @ZSTD_refDictContent(ptr noundef %0, ptr noundef %1, i64 noundef %2) #0 {
  %4 = alloca ptr, align 8
  %5 = alloca ptr, align 8
  %6 = alloca i64, align 8
  store ptr %0, ptr %4, align 8, !tbaa !3
  store ptr %1, ptr %5, align 8, !tbaa !23
  store i64 %2, ptr %6, align 8, !tbaa !24
  %7 = load ptr, ptr %4, align 8, !tbaa !3
  %8 = getelementptr inbounds nuw %struct.ZSTD_DCtx_s, ptr %7, i32 0, i32 6
  %9 = load ptr, ptr %8, align 8, !tbaa !75
  %10 = load ptr, ptr %4, align 8, !tbaa !3
  %11 = getelementptr inbounds nuw %struct.ZSTD_DCtx_s, ptr %10, i32 0, i32 9
  store ptr %9, ptr %11, align 8, !tbaa !28
  %12 = load ptr, ptr %5, align 8, !tbaa !23
  %13 = load ptr, ptr %4, align 8, !tbaa !3
  %14 = getelementptr inbounds nuw %struct.ZSTD_DCtx_s, ptr %13, i32 0, i32 6
  %15 = load ptr, ptr %14, align 8, !tbaa !75
  %16 = load ptr, ptr %4, align 8, !tbaa !3
  %17 = getelementptr inbounds nuw %struct.ZSTD_DCtx_s, ptr %16, i32 0, i32 7
  %18 = load ptr, ptr %17, align 8, !tbaa !109
  %19 = ptrtoint ptr %15 to i64
  %20 = ptrtoint ptr %18 to i64
  %21 = sub i64 %19, %20
  %22 = sub i64 0, %21
  %23 = getelementptr inbounds i8, ptr %12, i64 %22
  %24 = load ptr, ptr %4, align 8, !tbaa !3
  %25 = getelementptr inbounds nuw %struct.ZSTD_DCtx_s, ptr %24, i32 0, i32 8
  store ptr %23, ptr %25, align 8, !tbaa !110
  %26 = load ptr, ptr %5, align 8, !tbaa !23
  %27 = load ptr, ptr %4, align 8, !tbaa !3
  %28 = getelementptr inbounds nuw %struct.ZSTD_DCtx_s, ptr %27, i32 0, i32 7
  store ptr %26, ptr %28, align 8, !tbaa !109
  %29 = load ptr, ptr %5, align 8, !tbaa !23
  %30 = load i64, ptr %6, align 8, !tbaa !24
  %31 = getelementptr inbounds nuw i8, ptr %29, i64 %30
  %32 = load ptr, ptr %4, align 8, !tbaa !3
  %33 = getelementptr inbounds nuw %struct.ZSTD_DCtx_s, ptr %32, i32 0, i32 6
  store ptr %31, ptr %33, align 8, !tbaa !75
  ret i64 0
}

; Function Attrs: nounwind uwtable
define internal i64 @ZSTD_startingInputLength(i32 noundef %0) #0 {
  %2 = alloca i32, align 4
  %3 = alloca i64, align 8
  store i32 %0, ptr %2, align 4, !tbaa !43
  call void @llvm.lifetime.start.p0(i64 8, ptr %3) #11
  %4 = load i32, ptr %2, align 4, !tbaa !43
  %5 = icmp eq i32 %4, 0
  %6 = select i1 %5, i32 5, i32 1
  %7 = sext i32 %6 to i64
  store i64 %7, ptr %3, align 8, !tbaa !24
  %8 = load i64, ptr %3, align 8, !tbaa !24
  call void @llvm.lifetime.end.p0(i64 8, ptr %3) #11
  ret i64 %8
}

; Function Attrs: nounwind uwtable
define internal i64 @ZSTD_decompress_insertDictionary(ptr noundef %0, ptr noundef %1, i64 noundef %2) #0 {
  %4 = alloca i64, align 8
  %5 = alloca ptr, align 8
  %6 = alloca ptr, align 8
  %7 = alloca i64, align 8
  %8 = alloca i32, align 4
  %9 = alloca i32, align 4
  %10 = alloca i64, align 8
  store ptr %0, ptr %5, align 8, !tbaa !3
  store ptr %1, ptr %6, align 8, !tbaa !23
  store i64 %2, ptr %7, align 8, !tbaa !24
  %11 = load i64, ptr %7, align 8, !tbaa !24
  %12 = icmp ult i64 %11, 8
  br i1 %12, label %13, label %18

13:                                               ; preds = %3
  %14 = load ptr, ptr %5, align 8, !tbaa !3
  %15 = load ptr, ptr %6, align 8, !tbaa !23
  %16 = load i64, ptr %7, align 8, !tbaa !24
  %17 = call i64 @ZSTD_refDictContent(ptr noundef %14, ptr noundef %15, i64 noundef %16)
  store i64 %17, ptr %4, align 8
  br label %79

18:                                               ; preds = %3
  call void @llvm.lifetime.start.p0(i64 4, ptr %8) #11
  %19 = load ptr, ptr %6, align 8, !tbaa !23
  %20 = call i32 @MEM_readLE32(ptr noundef %19)
  store i32 %20, ptr %8, align 4, !tbaa !43
  %21 = load i32, ptr %8, align 4, !tbaa !43
  %22 = icmp ne i32 %21, -332356553
  br i1 %22, label %23, label %28

23:                                               ; preds = %18
  %24 = load ptr, ptr %5, align 8, !tbaa !3
  %25 = load ptr, ptr %6, align 8, !tbaa !23
  %26 = load i64, ptr %7, align 8, !tbaa !24
  %27 = call i64 @ZSTD_refDictContent(ptr noundef %24, ptr noundef %25, i64 noundef %26)
  store i64 %27, ptr %4, align 8
  store i32 1, ptr %9, align 4
  br label %29

28:                                               ; preds = %18
  store i32 0, ptr %9, align 4
  br label %29

29:                                               ; preds = %28, %23
  call void @llvm.lifetime.end.p0(i64 4, ptr %8) #11
  %30 = load i32, ptr %9, align 4
  switch i32 %30, label %81 [
    i32 0, label %31
    i32 1, label %79
  ]

31:                                               ; preds = %29
  %32 = load ptr, ptr %6, align 8, !tbaa !23
  %33 = getelementptr inbounds i8, ptr %32, i64 4
  %34 = call i32 @MEM_readLE32(ptr noundef %33)
  %35 = load ptr, ptr %5, align 8, !tbaa !3
  %36 = getelementptr inbounds nuw %struct.ZSTD_DCtx_s, ptr %35, i32 0, i32 32
  store i32 %34, ptr %36, align 8, !tbaa !94
  call void @llvm.lifetime.start.p0(i64 8, ptr %10) #11
  %37 = load ptr, ptr %5, align 8, !tbaa !3
  %38 = getelementptr inbounds nuw %struct.ZSTD_DCtx_s, ptr %37, i32 0, i32 4
  %39 = load ptr, ptr %6, align 8, !tbaa !23
  %40 = load i64, ptr %7, align 8, !tbaa !24
  %41 = call i64 @ZSTD_loadDEntropy(ptr noundef %38, ptr noundef %39, i64 noundef %40)
  store i64 %41, ptr %10, align 8, !tbaa !24
  br label %42

42:                                               ; preds = %31
  %43 = load i64, ptr %10, align 8, !tbaa !24
  %44 = call i32 @ERR_isError(i64 noundef %43)
  %45 = icmp ne i32 %44, 0
  br i1 %45, label %46, label %59

46:                                               ; preds = %42
  br label %47

47:                                               ; preds = %46
  br label %48

48:                                               ; preds = %47
  br label %49

49:                                               ; preds = %48
  br label %50

50:                                               ; preds = %49
  br label %51

51:                                               ; preds = %50
  br label %52

52:                                               ; preds = %51
  br label %53

53:                                               ; preds = %52
  br label %54

54:                                               ; preds = %53
  br label %55

55:                                               ; preds = %54
  br label %56

56:                                               ; preds = %55
  br label %57

57:                                               ; preds = %56
  br label %58

58:                                               ; preds = %57
  store i64 -30, ptr %4, align 8
  store i32 1, ptr %9, align 4
  br label %68

59:                                               ; preds = %42
  br label %60

60:                                               ; preds = %59
  br label %61

61:                                               ; preds = %60
  %62 = load ptr, ptr %6, align 8, !tbaa !23
  %63 = load i64, ptr %10, align 8, !tbaa !24
  %64 = getelementptr inbounds nuw i8, ptr %62, i64 %63
  store ptr %64, ptr %6, align 8, !tbaa !23
  %65 = load i64, ptr %10, align 8, !tbaa !24
  %66 = load i64, ptr %7, align 8, !tbaa !24
  %67 = sub i64 %66, %65
  store i64 %67, ptr %7, align 8, !tbaa !24
  store i32 0, ptr %9, align 4
  br label %68

68:                                               ; preds = %61, %58
  call void @llvm.lifetime.end.p0(i64 8, ptr %10) #11
  %69 = load i32, ptr %9, align 4
  switch i32 %69, label %81 [
    i32 0, label %70
    i32 1, label %79
  ]

70:                                               ; preds = %68
  %71 = load ptr, ptr %5, align 8, !tbaa !3
  %72 = getelementptr inbounds nuw %struct.ZSTD_DCtx_s, ptr %71, i32 0, i32 17
  store i32 1, ptr %72, align 4, !tbaa !111
  %73 = load ptr, ptr %5, align 8, !tbaa !3
  %74 = getelementptr inbounds nuw %struct.ZSTD_DCtx_s, ptr %73, i32 0, i32 16
  store i32 1, ptr %74, align 8, !tbaa !112
  %75 = load ptr, ptr %5, align 8, !tbaa !3
  %76 = load ptr, ptr %6, align 8, !tbaa !23
  %77 = load i64, ptr %7, align 8, !tbaa !24
  %78 = call i64 @ZSTD_refDictContent(ptr noundef %75, ptr noundef %76, i64 noundef %77)
  store i64 %78, ptr %4, align 8
  br label %79

79:                                               ; preds = %70, %68, %29, %13
  %80 = load i64, ptr %4, align 8
  ret i64 %80

81:                                               ; preds = %68, %29
  unreachable
}

; Function Attrs: nounwind uwtable
define internal i32 @ERR_isError(i64 noundef %0) #0 {
  %2 = alloca i64, align 8
  store i64 %0, ptr %2, align 8, !tbaa !24
  %3 = load i64, ptr %2, align 8, !tbaa !24
  %4 = icmp ugt i64 %3, -120
  %5 = zext i1 %4 to i32
  ret i32 %5
}

; Function Attrs: nounwind uwtable
define i64 @ZSTD_decompressBegin(ptr noundef %0) #0 {
  %2 = alloca ptr, align 8
  store ptr %0, ptr %2, align 8, !tbaa !3
  %3 = icmp ne ptr @ZSTD_trace_decompress_begin, null
  br i1 %3, label %4, label %7

4:                                                ; preds = %1
  %5 = load ptr, ptr %2, align 8, !tbaa !3
  %6 = call i64 @ZSTD_trace_decompress_begin(ptr noundef %5)
  br label %8

7:                                                ; preds = %1
  br label %8

8:                                                ; preds = %7, %4
  %9 = phi i64 [ %6, %4 ], [ 0, %7 ]
  %10 = load ptr, ptr %2, align 8, !tbaa !3
  %11 = getelementptr inbounds nuw %struct.ZSTD_DCtx_s, ptr %10, i32 0, i32 62
  store i64 %9, ptr %11, align 8, !tbaa !96
  %12 = load ptr, ptr %2, align 8, !tbaa !3
  %13 = getelementptr inbounds nuw %struct.ZSTD_DCtx_s, ptr %12, i32 0, i32 20
  %14 = load i32, ptr %13, align 8, !tbaa !77
  %15 = call i64 @ZSTD_startingInputLength(i32 noundef %14)
  %16 = load ptr, ptr %2, align 8, !tbaa !3
  %17 = getelementptr inbounds nuw %struct.ZSTD_DCtx_s, ptr %16, i32 0, i32 10
  store i64 %15, ptr %17, align 8, !tbaa !79
  %18 = load ptr, ptr %2, align 8, !tbaa !3
  %19 = getelementptr inbounds nuw %struct.ZSTD_DCtx_s, ptr %18, i32 0, i32 15
  store i32 0, ptr %19, align 4, !tbaa !80
  %20 = load ptr, ptr %2, align 8, !tbaa !3
  %21 = getelementptr inbounds nuw %struct.ZSTD_DCtx_s, ptr %20, i32 0, i32 12
  store i64 0, ptr %21, align 8, !tbaa !81
  %22 = load ptr, ptr %2, align 8, !tbaa !3
  %23 = getelementptr inbounds nuw %struct.ZSTD_DCtx_s, ptr %22, i32 0, i32 13
  store i64 0, ptr %23, align 8, !tbaa !89
  %24 = load ptr, ptr %2, align 8, !tbaa !3
  %25 = getelementptr inbounds nuw %struct.ZSTD_DCtx_s, ptr %24, i32 0, i32 6
  store ptr null, ptr %25, align 8, !tbaa !75
  %26 = load ptr, ptr %2, align 8, !tbaa !3
  %27 = getelementptr inbounds nuw %struct.ZSTD_DCtx_s, ptr %26, i32 0, i32 7
  store ptr null, ptr %27, align 8, !tbaa !109
  %28 = load ptr, ptr %2, align 8, !tbaa !3
  %29 = getelementptr inbounds nuw %struct.ZSTD_DCtx_s, ptr %28, i32 0, i32 8
  store ptr null, ptr %29, align 8, !tbaa !110
  %30 = load ptr, ptr %2, align 8, !tbaa !3
  %31 = getelementptr inbounds nuw %struct.ZSTD_DCtx_s, ptr %30, i32 0, i32 9
  store ptr null, ptr %31, align 8, !tbaa !28
  %32 = load ptr, ptr %2, align 8, !tbaa !3
  %33 = getelementptr inbounds nuw %struct.ZSTD_DCtx_s, ptr %32, i32 0, i32 4
  %34 = getelementptr inbounds nuw %struct.ZSTD_entropyDTables_t, ptr %33, i32 0, i32 3
  %35 = getelementptr inbounds [4097 x i32], ptr %34, i64 0, i64 0
  store i32 201326604, ptr %35, align 8, !tbaa !43
  %36 = load ptr, ptr %2, align 8, !tbaa !3
  %37 = getelementptr inbounds nuw %struct.ZSTD_DCtx_s, ptr %36, i32 0, i32 17
  store i32 0, ptr %37, align 4, !tbaa !111
  %38 = load ptr, ptr %2, align 8, !tbaa !3
  %39 = getelementptr inbounds nuw %struct.ZSTD_DCtx_s, ptr %38, i32 0, i32 16
  store i32 0, ptr %39, align 8, !tbaa !112
  %40 = load ptr, ptr %2, align 8, !tbaa !3
  %41 = getelementptr inbounds nuw %struct.ZSTD_DCtx_s, ptr %40, i32 0, i32 32
  store i32 0, ptr %41, align 8, !tbaa !94
  %42 = load ptr, ptr %2, align 8, !tbaa !3
  %43 = getelementptr inbounds nuw %struct.ZSTD_DCtx_s, ptr %42, i32 0, i32 14
  store i32 3, ptr %43, align 8, !tbaa !85
  %44 = load ptr, ptr %2, align 8, !tbaa !3
  %45 = getelementptr inbounds nuw %struct.ZSTD_DCtx_s, ptr %44, i32 0, i32 28
  store i32 1, ptr %45, align 8, !tbaa !36
  %46 = load ptr, ptr %2, align 8, !tbaa !3
  %47 = getelementptr inbounds nuw %struct.ZSTD_DCtx_s, ptr %46, i32 0, i32 4
  %48 = getelementptr inbounds nuw %struct.ZSTD_entropyDTables_t, ptr %47, i32 0, i32 4
  %49 = getelementptr inbounds [3 x i32], ptr %48, i64 0, i64 0
  call void @llvm.memcpy.p0.p0.i64(ptr align 4 %49, ptr align 4 @repStartValue, i64 12, i1 false)
  %50 = load ptr, ptr %2, align 8, !tbaa !3
  %51 = getelementptr inbounds nuw %struct.ZSTD_DCtx_s, ptr %50, i32 0, i32 4
  %52 = getelementptr inbounds nuw %struct.ZSTD_entropyDTables_t, ptr %51, i32 0, i32 0
  %53 = getelementptr inbounds [513 x %struct.ZSTD_seqSymbol], ptr %52, i64 0, i64 0
  %54 = load ptr, ptr %2, align 8, !tbaa !3
  %55 = getelementptr inbounds nuw %struct.ZSTD_DCtx_s, ptr %54, i32 0, i32 0
  store ptr %53, ptr %55, align 8, !tbaa !113
  %56 = load ptr, ptr %2, align 8, !tbaa !3
  %57 = getelementptr inbounds nuw %struct.ZSTD_DCtx_s, ptr %56, i32 0, i32 4
  %58 = getelementptr inbounds nuw %struct.ZSTD_entropyDTables_t, ptr %57, i32 0, i32 2
  %59 = getelementptr inbounds [513 x %struct.ZSTD_seqSymbol], ptr %58, i64 0, i64 0
  %60 = load ptr, ptr %2, align 8, !tbaa !3
  %61 = getelementptr inbounds nuw %struct.ZSTD_DCtx_s, ptr %60, i32 0, i32 1
  store ptr %59, ptr %61, align 8, !tbaa !114
  %62 = load ptr, ptr %2, align 8, !tbaa !3
  %63 = getelementptr inbounds nuw %struct.ZSTD_DCtx_s, ptr %62, i32 0, i32 4
  %64 = getelementptr inbounds nuw %struct.ZSTD_entropyDTables_t, ptr %63, i32 0, i32 1
  %65 = getelementptr inbounds [257 x %struct.ZSTD_seqSymbol], ptr %64, i64 0, i64 0
  %66 = load ptr, ptr %2, align 8, !tbaa !3
  %67 = getelementptr inbounds nuw %struct.ZSTD_DCtx_s, ptr %66, i32 0, i32 2
  store ptr %65, ptr %67, align 8, !tbaa !115
  %68 = load ptr, ptr %2, align 8, !tbaa !3
  %69 = getelementptr inbounds nuw %struct.ZSTD_DCtx_s, ptr %68, i32 0, i32 4
  %70 = getelementptr inbounds nuw %struct.ZSTD_entropyDTables_t, ptr %69, i32 0, i32 3
  %71 = getelementptr inbounds [4097 x i32], ptr %70, i64 0, i64 0
  %72 = load ptr, ptr %2, align 8, !tbaa !3
  %73 = getelementptr inbounds nuw %struct.ZSTD_DCtx_s, ptr %72, i32 0, i32 3
  store ptr %71, ptr %73, align 8, !tbaa !116
  ret i64 0
}

; Function Attrs: nounwind uwtable
define i64 @ZSTD_decompressBegin_usingDict(ptr noundef %0, ptr noundef %1, i64 noundef %2) #0 {
  %4 = alloca i64, align 8
  %5 = alloca ptr, align 8
  %6 = alloca ptr, align 8
  %7 = alloca i64, align 8
  %8 = alloca i64, align 8
  %9 = alloca i32, align 4
  store ptr %0, ptr %5, align 8, !tbaa !3
  store ptr %1, ptr %6, align 8, !tbaa !23
  store i64 %2, ptr %7, align 8, !tbaa !24
  br label %10

10:                                               ; preds = %3
  call void @llvm.lifetime.start.p0(i64 8, ptr %8) #11
  %11 = load ptr, ptr %5, align 8, !tbaa !3
  %12 = call i64 @ZSTD_decompressBegin(ptr noundef %11)
  store i64 %12, ptr %8, align 8, !tbaa !24
  %13 = load i64, ptr %8, align 8, !tbaa !24
  %14 = call i32 @ERR_isError(i64 noundef %13)
  %15 = icmp ne i32 %14, 0
  br i1 %15, label %16, label %30

16:                                               ; preds = %10
  br label %17

17:                                               ; preds = %16
  br label %18

18:                                               ; preds = %17
  br label %19

19:                                               ; preds = %18
  br label %20

20:                                               ; preds = %19
  br label %21

21:                                               ; preds = %20
  br label %22

22:                                               ; preds = %21
  br label %23

23:                                               ; preds = %22
  br label %24

24:                                               ; preds = %23
  br label %25

25:                                               ; preds = %24
  br label %26

26:                                               ; preds = %25
  br label %27

27:                                               ; preds = %26
  br label %28

28:                                               ; preds = %27
  %29 = load i64, ptr %8, align 8, !tbaa !24
  store i64 %29, ptr %4, align 8
  store i32 1, ptr %9, align 4
  br label %31

30:                                               ; preds = %10
  store i32 0, ptr %9, align 4
  br label %31

31:                                               ; preds = %30, %28
  call void @llvm.lifetime.end.p0(i64 8, ptr %8) #11
  %32 = load i32, ptr %9, align 4
  switch i32 %32, label %62 [
    i32 0, label %33
    i32 1, label %60
  ]

33:                                               ; preds = %31
  br label %34

34:                                               ; preds = %33
  %35 = load ptr, ptr %6, align 8, !tbaa !23
  %36 = icmp ne ptr %35, null
  br i1 %36, label %37, label %59

37:                                               ; preds = %34
  %38 = load i64, ptr %7, align 8, !tbaa !24
  %39 = icmp ne i64 %38, 0
  br i1 %39, label %40, label %59

40:                                               ; preds = %37
  br label %41

41:                                               ; preds = %40
  %42 = load ptr, ptr %5, align 8, !tbaa !3
  %43 = load ptr, ptr %6, align 8, !tbaa !23
  %44 = load i64, ptr %7, align 8, !tbaa !24
  %45 = call i64 @ZSTD_decompress_insertDictionary(ptr noundef %42, ptr noundef %43, i64 noundef %44)
  %46 = call i32 @ERR_isError(i64 noundef %45)
  %47 = icmp ne i32 %46, 0
  br i1 %47, label %48, label %57

48:                                               ; preds = %41
  br label %49

49:                                               ; preds = %48
  br label %50

50:                                               ; preds = %49
  br label %51

51:                                               ; preds = %50
  br label %52

52:                                               ; preds = %51
  br label %53

53:                                               ; preds = %52
  br label %54

54:                                               ; preds = %53
  br label %55

55:                                               ; preds = %54
  br label %56

56:                                               ; preds = %55
  store i64 -30, ptr %4, align 8
  br label %60

57:                                               ; preds = %41
  br label %58

58:                                               ; preds = %57
  br label %59

59:                                               ; preds = %58, %37, %34
  store i64 0, ptr %4, align 8
  br label %60

60:                                               ; preds = %59, %56, %31
  %61 = load i64, ptr %4, align 8
  ret i64 %61

62:                                               ; preds = %31
  unreachable
}