; Function Attrs: nounwind uwtable
define range(i64 -30, 1) i64 @ZSTD_decompressBegin_usingDict(ptr noundef %0, ptr noundef %1, i64 noundef %2) local_unnamed_addr #0 {
  %.not.i = icmp eq ptr @ZSTD_trace_decompress_begin, null
  br i1 %.not.i, label %6, label %4

4:                                                ; preds = %3
  %5 = tail call i64 @ZSTD_trace_decompress_begin(ptr noundef %0) #17
  br label %6

6:                                                ; preds = %4, %3
  %7 = phi i64 [ %5, %4 ], [ 0, %3 ]
  %8 = getelementptr inbounds nuw i8, ptr %0, i64 95984
  store i64 %7, ptr %8, align 8, !tbaa !86
  %9 = getelementptr inbounds nuw i8, ptr %0, i64 30104
  %10 = load i32, ptr %9, align 8, !tbaa !34
  %11 = icmp eq i32 %10, 0
  %12 = select i1 %11, i64 5, i64 1
  %13 = getelementptr inbounds nuw i8, ptr %0, i64 29920
  store i64 %12, ptr %13, align 8, !tbaa !87
  %14 = getelementptr inbounds nuw i8, ptr %0, i64 29996
  store i32 0, ptr %14, align 4, !tbaa !88
  %15 = getelementptr inbounds nuw i8, ptr %0, i64 29976
  %16 = getelementptr inbounds nuw i8, ptr %0, i64 29888
  %17 = getelementptr inbounds nuw i8, ptr %0, i64 32
  %18 = getelementptr inbounds nuw i8, ptr %0, i64 10296
  tail call void @llvm.memset.p0.i64(ptr noundef nonnull align 8 dereferenceable(32) %16, i8 0, i64 32, i1 false)
  tail call void @llvm.memset.p0.i64(ptr noundef nonnull align 8 dereferenceable(16) %15, i8 0, i64 16, i1 false)
  store i32 201326604, ptr %18, align 8, !tbaa !47
  %19 = getelementptr inbounds nuw i8, ptr %0, i64 30004
  store i32 0, ptr %19, align 4, !tbaa !89
  %20 = getelementptr inbounds nuw i8, ptr %0, i64 30000
  store i32 0, ptr %20, align 8, !tbaa !90
  %21 = getelementptr inbounds nuw i8, ptr %0, i64 30200
  store i32 0, ptr %21, align 8, !tbaa !91
  %22 = getelementptr inbounds nuw i8, ptr %0, i64 29992
  store i32 3, ptr %22, align 8, !tbaa !92
  %23 = getelementptr inbounds nuw i8, ptr %0, i64 30176
  store i32 1, ptr %23, align 8, !tbaa !28
  %24 = getelementptr inbounds nuw i8, ptr %0, i64 26684
  tail call void @llvm.memcpy.p0.p0.i64(ptr noundef nonnull align 4 dereferenceable(12) %24, ptr noundef nonnull align 4 dereferenceable(12) @repStartValue, i64 12, i1 false)
  store ptr %17, ptr %0, align 8, !tbaa !93
  %25 = getelementptr inbounds nuw i8, ptr %0, i64 6192
  %26 = getelementptr inbounds nuw i8, ptr %0, i64 8
  store ptr %25, ptr %26, align 8, !tbaa !94
  %27 = getelementptr inbounds nuw i8, ptr %0, i64 4136
  %28 = getelementptr inbounds nuw i8, ptr %0, i64 16
  store ptr %27, ptr %28, align 8, !tbaa !95
  %29 = getelementptr inbounds nuw i8, ptr %0, i64 24
  store ptr %18, ptr %29, align 8, !tbaa !96
  %30 = icmp ne ptr %1, null
  %31 = icmp ne i64 %2, 0
  %or.cond = and i1 %30, %31
  br i1 %or.cond, label %32, label %ZSTD_decompress_insertDictionary.exit

32:                                               ; preds = %6
  %33 = icmp ult i64 %2, 8
  br i1 %33, label %ZSTD_decompress_insertDictionary.exit.thread, label %34

34:                                               ; preds = %32
  %.val34.i = load i32, ptr %1, align 1, !tbaa !47
  %.not.not.i = icmp eq i32 %.val34.i, -332356553
  br i1 %.not.not.i, label %35, label %ZSTD_decompress_insertDictionary.exit.thread

35:                                               ; preds = %34
  %36 = getelementptr inbounds nuw i8, ptr %1, i64 4
  %.val.i = load i32, ptr %36, align 1, !tbaa !47
  store i32 %.val.i, ptr %21, align 8, !tbaa !91
  %37 = tail call i64 @ZSTD_loadDEntropy(ptr noundef nonnull %17, ptr noundef nonnull %1, i64 noundef range(i64 1, 0) %2)
  %38 = icmp ult i64 %37, -119
  br i1 %38, label %39, label %ZSTD_decompress_insertDictionary.exit

39:                                               ; preds = %35
  %40 = getelementptr inbounds nuw i8, ptr %1, i64 %37
  store i32 1, ptr %19, align 4, !tbaa !89
  store i32 1, ptr %20, align 8, !tbaa !90
  %.pre = load ptr, ptr %16, align 8, !tbaa !82
  %.phi.trans.insert = getelementptr inbounds nuw i8, ptr %0, i64 29896
  %.pre16 = load ptr, ptr %.phi.trans.insert, align 8, !tbaa !125
  %41 = ptrtoint ptr %.pre16 to i64
  br label %ZSTD_decompress_insertDictionary.exit.thread

ZSTD_decompress_insertDictionary.exit.thread:     ; preds = %32, %34, %39
  %42 = phi i64 [ %41, %39 ], [ 0, %32 ], [ 0, %34 ]
  %43 = phi ptr [ %.pre, %39 ], [ null, %32 ], [ null, %34 ]
  %.sink42.i = phi ptr [ %40, %39 ], [ %1, %32 ], [ %1, %34 ]
  %44 = getelementptr inbounds nuw i8, ptr %0, i64 29912
  store ptr %43, ptr %44, align 8, !tbaa !21
  %45 = getelementptr inbounds nuw i8, ptr %0, i64 29896
  %46 = ptrtoint ptr %43 to i64
  %.neg.i35.i = sub i64 %42, %46
  %47 = getelementptr inbounds i8, ptr %.sink42.i, i64 %.neg.i35.i
  %48 = getelementptr inbounds nuw i8, ptr %0, i64 29904
  store ptr %47, ptr %48, align 8, !tbaa !126
  store ptr %.sink42.i, ptr %45, align 8, !tbaa !125
  %49 = getelementptr inbounds nuw i8, ptr %1, i64 %2
  store ptr %49, ptr %16, align 8, !tbaa !82
  br label %ZSTD_decompress_insertDictionary.exit

ZSTD_decompress_insertDictionary.exit:            ; preds = %35, %6, %ZSTD_decompress_insertDictionary.exit.thread
  %.1 = phi i64 [ 0, %ZSTD_decompress_insertDictionary.exit.thread ], [ 0, %6 ], [ -30, %35 ]
  ret i64 %.1
}